target datalayout = "e-m:e-p270:32:32-p271:32:32-p272:64:64-i64:64-i128:128-f80:128-n8:16:32:64-S128"
target triple = "x86_64-pc-linux-gnu"

%struct.Vec_Int_t_ = type { i32, i32, ptr }

; Function Attrs: inlinehint nounwind uwtable
define internal i32 @Vec_IntEntry(ptr noundef %0, i32 noundef %1) #4 {
  %3 = alloca ptr, align 8
  %4 = alloca i32, align 4
  store ptr %0, ptr %3, align 8, !tbaa !14
  store i32 %1, ptr %4, align 4, !tbaa !3
  %5 = load ptr, ptr %3, align 8, !tbaa !14
  %6 = getelementptr inbounds nuw %struct.Vec_Int_t_, ptr %5, i32 0, i32 2
  %7 = load ptr, ptr %6, align 8, !tbaa !25
  %8 = load i32, ptr %4, align 4, !tbaa !3
  %9 = sext i32 %8 to i64
  %10 = getelementptr inbounds i32, ptr %7, i64 %9
  %11 = load i32, ptr %10, align 4, !tbaa !3
  ret i32 %11
}

; Function Attrs: nounwind uwtable
define i32 @Dau_CountFuncs(ptr noundef %0, i32 noundef %1, i32 noundef %2, i32 noundef %3) #0 {
  %5 = alloca ptr, align 8
  %6 = alloca i32, align 4
  %7 = alloca i32, align 4
  %8 = alloca i32, align 4
  %9 = alloca i32, align 4
  %10 = alloca i32, align 4
  %11 = alloca i32, align 4
  store ptr %0, ptr %5, align 8, !tbaa !14
  store i32 %1, ptr %6, align 4, !tbaa !3
  store i32 %2, ptr %7, align 4, !tbaa !3
  store i32 %3, ptr %8, align 4, !tbaa !3
  call void @llvm.lifetime.start.p0(i64 4, ptr %9) #12
  call void @llvm.lifetime.start.p0(i64 4, ptr %10) #12
  call void @llvm.lifetime.start.p0(i64 4, ptr %11) #12
  store i32 0, ptr %11, align 4, !tbaa !3
  %12 = load i32, ptr %6, align 4, !tbaa !3
  store i32 %12, ptr %9, align 4, !tbaa !3
  br label %13

13:                                               ; preds = %31, %4
  %14 = load i32, ptr %9, align 4, !tbaa !3
  %15 = load i32, ptr %7, align 4, !tbaa !3
  %16 = icmp slt i32 %14, %15
  br i1 %16, label %17, label %21

17:                                               ; preds = %13
  %18 = load ptr, ptr %5, align 8, !tbaa !14
  %19 = load i32, ptr %9, align 4, !tbaa !3
  %20 = call i32 @Vec_IntEntry(ptr noundef %18, i32 noundef %19)
  store i32 %20, ptr %10, align 4, !tbaa !3
  br label %21

21:                                               ; preds = %17, %13
  %22 = phi i1 [ false, %13 ], [ true, %17 ]
  br i1 %22, label %23, label %34

23:                                               ; preds = %21
  %24 = load i32, ptr %10, align 4, !tbaa !3
  %25 = and i32 %24, 15
  %26 = load i32, ptr %8, align 4, !tbaa !3
  %27 = icmp sle i32 %25, %26
  %28 = zext i1 %27 to i32
  %29 = load i32, ptr %11, align 4, !tbaa !3
  %30 = add nsw i32 %29, %28
  store i32 %30, ptr %11, align 4, !tbaa !3
  br label %31

31:                                               ; preds = %23
  %32 = load i32, ptr %9, align 4, !tbaa !3
  %33 = add nsw i32 %32, 1
  store i32 %33, ptr %9, align 4, !tbaa !3
  br label %13, !llvm.loop !80

34:                                               ; preds = %21
  %35 = load i32, ptr %11, align 4, !tbaa !3
  call void @llvm.lifetime.end.p0(i64 4, ptr %11) #12
  call void @llvm.lifetime.end.p0(i64 4, ptr %10) #12
  call void @llvm.lifetime.end.p0(i64 4, ptr %9) #12
  ret i32 %35
}