; Function Attrs: nofree norecurse nosync nounwind memory(read, inaccessiblemem: none) uwtable
define i32 @Dau_CountFuncs(ptr noundef readonly captures(none) %0, i32 noundef %1, i32 noundef %2, i32 noundef %3) local_unnamed_addr #11 {
  %5 = icmp slt i32 %1, %2
  br i1 %5, label %.lr.ph, label %.critedge

.lr.ph:                                           ; preds = %4
  %6 = getelementptr i8, ptr %0, i64 8
  %.val = load ptr, ptr %6, align 8, !tbaa !15
  %7 = sext i32 %1 to i64
  %wide.trip.count = sext i32 %2 to i64
  br label %8

8:                                                ; preds = %.lr.ph, %8
  %indvars.iv = phi i64 [ %7, %.lr.ph ], [ %indvars.iv.next, %8 ]
  %.011 = phi i32 [ 0, %.lr.ph ], [ %14, %8 ]
  %9 = getelementptr inbounds i32, ptr %.val, i64 %indvars.iv
  %10 = load i32, ptr %9, align 4, !tbaa !19
  %11 = and i32 %10, 15
  %12 = icmp sle i32 %11, %3
  %13 = zext i1 %12 to i32
  %14 = add nuw nsw i32 %.011, %13
  %indvars.iv.next = add nsw i64 %indvars.iv, 1
  %exitcond.not = icmp eq i64 %indvars.iv.next, %wide.trip.count
  br i1 %exitcond.not, label %.critedge, label %8, !llvm.loop !89

.critedge:                                        ; preds = %8, %4
  %.0.lcssa = phi i32 [ 0, %4 ], [ %14, %8 ]
  ret i32 %.0.lcssa
}